target datalayout = "e-m:e-p270:32:32-p271:32:32-p272:64:64-i64:64-i128:128-f80:128-n8:16:32:64-S128"
target triple = "x86_64-unknown-linux-gnu"

%"class.icu_75::UnicodeString" = type { %"class.icu_75::Replaceable", %"union.icu_75::UnicodeString::StackBufferOrFields" }
%"class.icu_75::Replaceable" = type { %"class.icu_75::UObject" }
%"class.icu_75::UObject" = type { ptr }
%"union.icu_75::UnicodeString::StackBufferOrFields" = type { %struct.anon.0, [32 x i8] }
%struct.anon.0 = type { i16, i32, i32, ptr }
%"struct.std::atomic" = type { %"struct.std::__atomic_base" }
%"struct.std::__atomic_base" = type { i32 }

; Function Attrs: mustprogress nounwind uwtable
define linkonce_odr void @_ZN6icu_7513UnicodeString14setShortLengthEi(ptr noundef nonnull align 8 dereferenceable(64) %this, i32 noundef %len) #0 comdat align 2 {
entry:
  %this.addr = alloca ptr, align 8
  %len.addr = alloca i32, align 4
  store ptr %this, ptr %this.addr, align 8
  store i32 %len, ptr %len.addr, align 4
  %this1 = load ptr, ptr %this.addr, align 8
  %fUnion = getelementptr inbounds %"class.icu_75::UnicodeString", ptr %this1, i32 0, i32 1
  %fLengthAndFlags = getelementptr inbounds %struct.anon.0, ptr %fUnion, i32 0, i32 0
  %0 = load i16, ptr %fLengthAndFlags, align 8
  %conv = sext i16 %0 to i32
  %and = and i32 %conv, 31
  %1 = load i32, ptr %len.addr, align 4
  %shl = shl i32 %1, 5
  %or = or i32 %and, %shl
  %conv2 = trunc i32 %or to i16
  %fUnion3 = getelementptr inbounds %"class.icu_75::UnicodeString", ptr %this1, i32 0, i32 1
  %fLengthAndFlags4 = getelementptr inbounds %struct.anon.0, ptr %fUnion3, i32 0, i32 0
  store i16 %conv2, ptr %fLengthAndFlags4, align 8
  ret void
}

; Function Attrs: mustprogress nounwind uwtable
define linkonce_odr noundef i32 @_ZN6icu_7515umtx_atomic_decEPSt6atomicIiE(ptr noundef %var) #0 comdat {
entry:
  %this.addr.i = alloca ptr, align 8
  %__i.addr.i = alloca i32, align 4
  %__m.addr.i = alloca i32, align 4
  %.atomictmp.i = alloca i32, align 4
  %atomic-temp.i = alloca i32, align 4
  %var.addr = alloca ptr, align 8
  store ptr %var, ptr %var.addr, align 8
  %0 = load ptr, ptr %var.addr, align 8
  store ptr %0, ptr %this.addr.i, align 8
  store i32 1, ptr %__i.addr.i, align 4
  store i32 5, ptr %__m.addr.i, align 4
  %this1.i = load ptr, ptr %this.addr.i, align 8
  %1 = load i32, ptr %__m.addr.i, align 4
  %2 = load i32, ptr %__i.addr.i, align 4
  store i32 %2, ptr %.atomictmp.i, align 4
  switch i32 %1, label %monotonic.i [
    i32 1, label %acquire.i
    i32 2, label %acquire.i
    i32 3, label %release.i
    i32 4, label %acqrel.i
    i32 5, label %seqcst.i
  ]

monotonic.i:                                      ; preds = %entry
  %3 = load i32, ptr %.atomictmp.i, align 4
  %4 = atomicrmw sub ptr %this1.i, i32 %3 monotonic, align 4
  store i32 %4, ptr %atomic-temp.i, align 4
  br label %_ZNSt13__atomic_baseIiE9fetch_subEiSt12memory_order.exit

acquire.i:                                        ; preds = %entry, %entry
  %5 = load i32, ptr %.atomictmp.i, align 4
  %6 = atomicrmw sub ptr %this1.i, i32 %5 acquire, align 4
  store i32 %6, ptr %atomic-temp.i, align 4
  br label %_ZNSt13__atomic_baseIiE9fetch_subEiSt12memory_order.exit

release.i:                                        ; preds = %entry
  %7 = load i32, ptr %.atomictmp.i, align 4
  %8 = atomicrmw sub ptr %this1.i, i32 %7 release, align 4
  store i32 %8, ptr %atomic-temp.i, align 4
  br label %_ZNSt13__atomic_baseIiE9fetch_subEiSt12memory_order.exit

acqrel.i:                                         ; preds = %entry
  %9 = load i32, ptr %.atomictmp.i, align 4
  %10 = atomicrmw sub ptr %this1.i, i32 %9 acq_rel, align 4
  store i32 %10, ptr %atomic-temp.i, align 4
  br label %_ZNSt13__atomic_baseIiE9fetch_subEiSt12memory_order.exit

seqcst.i:                                         ; preds = %entry
  %11 = load i32, ptr %.atomictmp.i, align 4
  %12 = atomicrmw sub ptr %this1.i, i32 %11 seq_cst, align 4
  store i32 %12, ptr %atomic-temp.i, align 4
  br label %_ZNSt13__atomic_baseIiE9fetch_subEiSt12memory_order.exit

_ZNSt13__atomic_baseIiE9fetch_subEiSt12memory_order.exit: ; preds = %seqcst.i, %acqrel.i, %release.i, %acquire.i, %monotonic.i
  %13 = load i32, ptr %atomic-temp.i, align 4
  %sub = sub nsw i32 %13, 1
  ret i32 %sub
}

; Function Attrs: mustprogress uwtable
define linkonce_odr void @_ZN6icu_7513UnicodeString9setLengthEi(ptr noundef nonnull align 8 dereferenceable(64) %this, i32 noundef %len) #3 comdat align 2 {
entry:
  %this.addr = alloca ptr, align 8
  %len.addr = alloca i32, align 4
  store ptr %this, ptr %this.addr, align 8
  store i32 %len, ptr %len.addr, align 4
  %this1 = load ptr, ptr %this.addr, align 8
  %0 = load i32, ptr %len.addr, align 4
  %cmp = icmp sle i32 %0, 1023
  br i1 %cmp, label %if.then, label %if.else

if.then:                                          ; preds = %entry
  %1 = load i32, ptr %len.addr, align 4
  call void @_ZN6icu_7513UnicodeString14setShortLengthEi(ptr noundef nonnull align 8 dereferenceable(64) %this1, i32 noundef %1)
  br label %if.end

if.else:                                          ; preds = %entry
  %fUnion = getelementptr inbounds %"class.icu_75::UnicodeString", ptr %this1, i32 0, i32 1
  %fLengthAndFlags = getelementptr inbounds %struct.anon.0, ptr %fUnion, i32 0, i32 0
  %2 = load i16, ptr %fLengthAndFlags, align 8
  %conv = sext i16 %2 to i32
  %or = or i32 %conv, 65504
  %conv2 = trunc i32 %or to i16
  store i16 %conv2, ptr %fLengthAndFlags, align 8
  %3 = load i32, ptr %len.addr, align 4
  %fUnion3 = getelementptr inbounds %"class.icu_75::UnicodeString", ptr %this1, i32 0, i32 1
  %fLength = getelementptr inbounds %struct.anon.0, ptr %fUnion3, i32 0, i32 1
  store i32 %3, ptr %fLength, align 4
  br label %if.end

if.end:                                           ; preds = %if.else, %if.then
  ret void
}

; Function Attrs: mustprogress uwtable
define noundef i32 @_ZN6icu_7513UnicodeString9removeRefEv(ptr noundef nonnull align 8 dereferenceable(64) %this) #3 align 2 {
entry:
  %this.addr = alloca ptr, align 8
  store ptr %this, ptr %this.addr, align 8
  %this1 = load ptr, ptr %this.addr, align 8
  %fUnion = getelementptr inbounds %"class.icu_75::UnicodeString", ptr %this1, i32 0, i32 1
  %fArray = getelementptr inbounds %struct.anon.0, ptr %fUnion, i32 0, i32 3
  %0 = load ptr, ptr %fArray, align 8
  %add.ptr = getelementptr inbounds %"struct.std::atomic", ptr %0, i64 -1
  %call = call noundef i32 @_ZN6icu_7515umtx_atomic_decEPSt6atomicIiE(ptr noundef %add.ptr)
  ret i32 %call
}

; Function Attrs: mustprogress uwtable
define linkonce_odr void @_ZN6icu_7513UnicodeString8setArrayEPDsii(ptr noundef nonnull align 8 dereferenceable(64) %this, ptr noundef %array, i32 noundef %len, i32 noundef %capacity) #3 comdat align 2 {
entry:
  %this.addr = alloca ptr, align 8
  %array.addr = alloca ptr, align 8
  %len.addr = alloca i32, align 4
  %capacity.addr = alloca i32, align 4
  store ptr %this, ptr %this.addr, align 8
  store ptr %array, ptr %array.addr, align 8
  store i32 %len, ptr %len.addr, align 4
  store i32 %capacity, ptr %capacity.addr, align 4
  %this1 = load ptr, ptr %this.addr, align 8
  %0 = load i32, ptr %len.addr, align 4
  call void @_ZN6icu_7513UnicodeString9setLengthEi(ptr noundef nonnull align 8 dereferenceable(64) %this1, i32 noundef %0)
  %1 = load ptr, ptr %array.addr, align 8
  %fUnion = getelementptr inbounds %"class.icu_75::UnicodeString", ptr %this1, i32 0, i32 1
  %fArray = getelementptr inbounds %struct.anon.0, ptr %fUnion, i32 0, i32 3
  store ptr %1, ptr %fArray, align 8
  %2 = load i32, ptr %capacity.addr, align 4
  %fUnion2 = getelementptr inbounds %"class.icu_75::UnicodeString", ptr %this1, i32 0, i32 1
  %fCapacity = getelementptr inbounds %struct.anon.0, ptr %fUnion2, i32 0, i32 2
  store i32 %2, ptr %fCapacity, align 8
  ret void
}

; Function Attrs: mustprogress uwtable
define void @_ZN6icu_7513UnicodeString10setToBogusEv(ptr noundef nonnull align 8 dereferenceable(64) %this) #3 align 2 {
entry:
  %this.addr = alloca ptr, align 8
  store ptr %this, ptr %this.addr, align 8
  %this1 = load ptr, ptr %this.addr, align 8
  call void @_ZN6icu_7513UnicodeString12releaseArrayEv(ptr noundef nonnull align 8 dereferenceable(64) %this1)
  %fUnion = getelementptr inbounds %"class.icu_75::UnicodeString", ptr %this1, i32 0, i32 1
  %fLengthAndFlags = getelementptr inbounds %struct.anon.0, ptr %fUnion, i32 0, i32 0
  store i16 1, ptr %fLengthAndFlags, align 8
  %fUnion2 = getelementptr inbounds %"class.icu_75::UnicodeString", ptr %this1, i32 0, i32 1
  %fArray = getelementptr inbounds %struct.anon.0, ptr %fUnion2, i32 0, i32 3
  store ptr null, ptr %fArray, align 8
  %fUnion3 = getelementptr inbounds %"class.icu_75::UnicodeString", ptr %this1, i32 0, i32 1
  %fCapacity = getelementptr inbounds %struct.anon.0, ptr %fUnion3, i32 0, i32 2
  store i32 0, ptr %fCapacity, align 8
  ret void
}

; Function Attrs: mustprogress nounwind uwtable
define linkonce_odr void @_ZN6icu_7513UnicodeString10setToEmptyEv(ptr noundef nonnull align 8 dereferenceable(64) %this) #0 comdat align 2 {
entry:
  %this.addr = alloca ptr, align 8
  store ptr %this, ptr %this.addr, align 8
  %this1 = load ptr, ptr %this.addr, align 8
  %fUnion = getelementptr inbounds %"class.icu_75::UnicodeString", ptr %this1, i32 0, i32 1
  %fLengthAndFlags = getelementptr inbounds %struct.anon.0, ptr %fUnion, i32 0, i32 0
  store i16 2, ptr %fLengthAndFlags, align 8
  ret void
}

; Function Attrs: mustprogress uwtable
define void @_ZN6icu_7513UnicodeString12releaseArrayEv(ptr noundef nonnull align 8 dereferenceable(64) %this) #3 align 2 {
entry:
  %this.addr = alloca ptr, align 8
  store ptr %this, ptr %this.addr, align 8
  %this1 = load ptr, ptr %this.addr, align 8
  %fUnion = getelementptr inbounds %"class.icu_75::UnicodeString", ptr %this1, i32 0, i32 1
  %fLengthAndFlags = getelementptr inbounds %struct.anon.0, ptr %fUnion, i32 0, i32 0
  %0 = load i16, ptr %fLengthAndFlags, align 8
  %conv = sext i16 %0 to i32
  %and = and i32 %conv, 4
  %tobool = icmp ne i32 %and, 0
  br i1 %tobool, label %land.lhs.true, label %if.end

land.lhs.true:                                    ; preds = %entry
  %call = call noundef i32 @_ZN6icu_7513UnicodeString9removeRefEv(ptr noundef nonnull align 8 dereferenceable(64) %this1)
  %cmp = icmp eq i32 %call, 0
  br i1 %cmp, label %if.then, label %if.end

if.then:                                          ; preds = %land.lhs.true
  %fUnion2 = getelementptr inbounds %"class.icu_75::UnicodeString", ptr %this1, i32 0, i32 1
  %fArray = getelementptr inbounds %struct.anon.0, ptr %fUnion2, i32 0, i32 3
  %1 = load ptr, ptr %fArray, align 8
  %add.ptr = getelementptr inbounds i32, ptr %1, i64 -1
  call void @uprv_free_75(ptr noundef %add.ptr)
  br label %if.end

if.end:                                           ; preds = %if.then, %land.lhs.true, %entry
  ret void
}

; Function Attrs: mustprogress uwtable
define noundef nonnull align 8 dereferenceable(64) ptr @_ZN6icu_7513UnicodeString5setToEPDsii(ptr noundef nonnull align 8 dereferenceable(64) %this, ptr noundef %buffer, i32 noundef %buffLength, i32 noundef %buffCapacity) #3 align 2 {
entry:
  %retval = alloca ptr, align 8
  %this.addr = alloca ptr, align 8
  %buffer.addr = alloca ptr, align 8
  %buffLength.addr = alloca i32, align 4
  %buffCapacity.addr = alloca i32, align 4
  %p = alloca ptr, align 8
  %limit = alloca ptr, align 8
  store ptr %this, ptr %this.addr, align 8
  store ptr %buffer, ptr %buffer.addr, align 8
  store i32 %buffLength, ptr %buffLength.addr, align 4
  store i32 %buffCapacity, ptr %buffCapacity.addr, align 4
  %this1 = load ptr, ptr %this.addr, align 8
  %fUnion = getelementptr inbounds %"class.icu_75::UnicodeString", ptr %this1, i32 0, i32 1
  %fLengthAndFlags = getelementptr inbounds %struct.anon.0, ptr %fUnion, i32 0, i32 0
  %0 = load i16, ptr %fLengthAndFlags, align 8
  %conv = sext i16 %0 to i32
  %and = and i32 %conv, 16
  %tobool = icmp ne i32 %and, 0
  br i1 %tobool, label %if.then, label %if.end

if.then:                                          ; preds = %entry
  store ptr %this1, ptr %retval, align 8
  br label %return

if.end:                                           ; preds = %entry
  %1 = load ptr, ptr %buffer.addr, align 8
  %cmp = icmp eq ptr %1, null
  br i1 %cmp, label %if.then2, label %if.end3

if.then2:                                         ; preds = %if.end
  call void @_ZN6icu_7513UnicodeString12releaseArrayEv(ptr noundef nonnull align 8 dereferenceable(64) %this1)
  call void @_ZN6icu_7513UnicodeString10setToEmptyEv(ptr noundef nonnull align 8 dereferenceable(64) %this1)
  store ptr %this1, ptr %retval, align 8
  br label %return

if.end3:                                          ; preds = %if.end
  %2 = load i32, ptr %buffLength.addr, align 4
  %cmp4 = icmp slt i32 %2, -1
  br i1 %cmp4, label %if.then8, label %lor.lhs.false

lor.lhs.false:                                    ; preds = %if.end3
  %3 = load i32, ptr %buffCapacity.addr, align 4
  %cmp5 = icmp slt i32 %3, 0
  br i1 %cmp5, label %if.then8, label %lor.lhs.false6

lor.lhs.false6:                                   ; preds = %lor.lhs.false
  %4 = load i32, ptr %buffLength.addr, align 4
  %5 = load i32, ptr %buffCapacity.addr, align 4
  %cmp7 = icmp sgt i32 %4, %5
  br i1 %cmp7, label %if.then8, label %if.else

if.then8:                                         ; preds = %lor.lhs.false6, %lor.lhs.false, %if.end3
  call void @_ZN6icu_7513UnicodeString10setToBogusEv(ptr noundef nonnull align 8 dereferenceable(64) %this1)
  store ptr %this1, ptr %retval, align 8
  br label %return

if.else:                                          ; preds = %lor.lhs.false6
  %6 = load i32, ptr %buffLength.addr, align 4
  %cmp9 = icmp eq i32 %6, -1
  br i1 %cmp9, label %if.then10, label %if.end15

if.then10:                                        ; preds = %if.else
  %7 = load ptr, ptr %buffer.addr, align 8
  store ptr %7, ptr %p, align 8
  %8 = load ptr, ptr %buffer.addr, align 8
  %9 = load i32, ptr %buffCapacity.addr, align 4
  %idx.ext = sext i32 %9 to i64
  %add.ptr = getelementptr inbounds i16, ptr %8, i64 %idx.ext
  store ptr %add.ptr, ptr %limit, align 8
  br label %while.cond

while.cond:                                       ; preds = %while.body, %if.then10
  %10 = load ptr, ptr %p, align 8
  %11 = load ptr, ptr %limit, align 8
  %cmp11 = icmp ne ptr %10, %11
  br i1 %cmp11, label %land.rhs, label %land.end

land.rhs:                                         ; preds = %while.cond
  %12 = load ptr, ptr %p, align 8
  %13 = load i16, ptr %12, align 2
  %conv12 = zext i16 %13 to i32
  %cmp13 = icmp ne i32 %conv12, 0
  br label %land.end

land.end:                                         ; preds = %land.rhs, %while.cond
  %14 = phi i1 [ false, %while.cond ], [ %cmp13, %land.rhs ]
  br i1 %14, label %while.body, label %while.end

while.body:                                       ; preds = %land.end
  %15 = load ptr, ptr %p, align 8
  %incdec.ptr = getelementptr inbounds i16, ptr %15, i32 1
  store ptr %incdec.ptr, ptr %p, align 8
  br label %while.cond, !llvm.loop !16

while.end:                                        ; preds = %land.end
  %16 = load ptr, ptr %p, align 8
  %17 = load ptr, ptr %buffer.addr, align 8
  %sub.ptr.lhs.cast = ptrtoint ptr %16 to i64
  %sub.ptr.rhs.cast = ptrtoint ptr %17 to i64
  %sub.ptr.sub = sub i64 %sub.ptr.lhs.cast, %sub.ptr.rhs.cast
  %sub.ptr.div = sdiv exact i64 %sub.ptr.sub, 2
  %conv14 = trunc i64 %sub.ptr.div to i32
  store i32 %conv14, ptr %buffLength.addr, align 4
  br label %if.end15

if.end15:                                         ; preds = %while.end, %if.else
  br label %if.end16

if.end16:                                         ; preds = %if.end15
  call void @_ZN6icu_7513UnicodeString12releaseArrayEv(ptr noundef nonnull align 8 dereferenceable(64) %this1)
  %fUnion17 = getelementptr inbounds %"class.icu_75::UnicodeString", ptr %this1, i32 0, i32 1
  %fLengthAndFlags18 = getelementptr inbounds %struct.anon.0, ptr %fUnion17, i32 0, i32 0
  store i16 0, ptr %fLengthAndFlags18, align 8
  %18 = load ptr, ptr %buffer.addr, align 8
  %19 = load i32, ptr %buffLength.addr, align 4
  %20 = load i32, ptr %buffCapacity.addr, align 4
  call void @_ZN6icu_7513UnicodeString8setArrayEPDsii(ptr noundef nonnull align 8 dereferenceable(64) %this1, ptr noundef %18, i32 noundef %19, i32 noundef %20)
  store ptr %this1, ptr %retval, align 8
  br label %return

return:                                           ; preds = %if.end16, %if.then8, %if.then2, %if.then
  %21 = load ptr, ptr %retval, align 8
  ret ptr %21
}