; Function Attrs: mustprogress uwtable
define noundef nonnull align 8 dereferenceable(64) ptr @_ZN6icu_7513UnicodeString5setToEPDsii(ptr noundef nonnull returned align 8 dereferenceable(64) %this, ptr noundef %buffer, i32 noundef %buffLength, i32 noundef %buffCapacity) local_unnamed_addr #5 align 2 {
entry:
  %fUnion = getelementptr inbounds i8, ptr %this, i64 8
  %0 = load i16, ptr %fUnion, align 8
  %1 = and i16 %0, 16
  %tobool.not = icmp eq i16 %1, 0
  br i1 %tobool.not, label %if.end, label %return

if.end:                                           ; preds = %entry
  %cmp = icmp eq ptr %buffer, null
  br i1 %cmp, label %if.then2, label %if.end3

if.then2:                                         ; preds = %if.end
  %2 = and i16 %0, 4
  %tobool.not.i = icmp eq i16 %2, 0
  br i1 %tobool.not.i, label %_ZN6icu_7513UnicodeString12releaseArrayEv.exit, label %land.lhs.true.i

land.lhs.true.i:                                  ; preds = %if.then2
  %fArray.i.i = getelementptr inbounds i8, ptr %this, i64 24
  %3 = load ptr, ptr %fArray.i.i, align 8
  %add.ptr.i.i = getelementptr inbounds i8, ptr %3, i64 -4
  %4 = atomicrmw sub ptr %add.ptr.i.i, i32 1 seq_cst, align 4
  %cmp.i = icmp eq i32 %4, 1
  br i1 %cmp.i, label %if.then.i, label %_ZN6icu_7513UnicodeString12releaseArrayEv.exit

if.then.i:                                        ; preds = %land.lhs.true.i
  %5 = load ptr, ptr %fArray.i.i, align 8
  %add.ptr.i = getelementptr inbounds i8, ptr %5, i64 -4
  tail call void @uprv_free_75(ptr noundef nonnull %add.ptr.i)
  br label %_ZN6icu_7513UnicodeString12releaseArrayEv.exit

_ZN6icu_7513UnicodeString12releaseArrayEv.exit:   ; preds = %if.then2, %land.lhs.true.i, %if.then.i
  store i16 2, ptr %fUnion, align 8
  br label %return

if.end3:                                          ; preds = %if.end
  %cmp4 = icmp slt i32 %buffLength, -1
  %cmp5 = icmp slt i32 %buffCapacity, 0
  %or.cond = or i1 %cmp4, %cmp5
  %cmp7 = icmp sgt i32 %buffLength, %buffCapacity
  %or.cond14 = or i1 %cmp7, %or.cond
  br i1 %or.cond14, label %if.then8, label %if.else

if.then8:                                         ; preds = %if.end3
  %6 = and i16 %0, 4
  %tobool.not.i.i = icmp eq i16 %6, 0
  br i1 %tobool.not.i.i, label %_ZN6icu_7513UnicodeString10setToBogusEv.exit, label %land.lhs.true.i.i

land.lhs.true.i.i:                                ; preds = %if.then8
  %fArray.i.i.i = getelementptr inbounds i8, ptr %this, i64 24
  %7 = load ptr, ptr %fArray.i.i.i, align 8
  %add.ptr.i.i.i = getelementptr inbounds i8, ptr %7, i64 -4
  %8 = atomicrmw sub ptr %add.ptr.i.i.i, i32 1 seq_cst, align 4
  %cmp.i.i = icmp eq i32 %8, 1
  br i1 %cmp.i.i, label %if.then.i.i, label %_ZN6icu_7513UnicodeString10setToBogusEv.exit

if.then.i.i:                                      ; preds = %land.lhs.true.i.i
  %9 = load ptr, ptr %fArray.i.i.i, align 8
  %add.ptr.i.i16 = getelementptr inbounds i8, ptr %9, i64 -4
  tail call void @uprv_free_75(ptr noundef nonnull %add.ptr.i.i16)
  br label %_ZN6icu_7513UnicodeString10setToBogusEv.exit

_ZN6icu_7513UnicodeString10setToBogusEv.exit:     ; preds = %if.then8, %land.lhs.true.i.i, %if.then.i.i
  store i16 1, ptr %fUnion, align 8
  %fArray.i = getelementptr inbounds i8, ptr %this, i64 24
  store ptr null, ptr %fArray.i, align 8
  %fCapacity.i = getelementptr inbounds i8, ptr %this, i64 16
  store i32 0, ptr %fCapacity.i, align 8
  br label %return

if.else:                                          ; preds = %if.end3
  %cmp9 = icmp eq i32 %buffLength, -1
  br i1 %cmp9, label %if.then10, label %if.end16

if.then10:                                        ; preds = %if.else
  %idx.ext = zext nneg i32 %buffCapacity to i64
  %add.ptr = getelementptr inbounds i16, ptr %buffer, i64 %idx.ext
  %cmp11.not30 = icmp eq i32 %buffCapacity, 0
  br i1 %cmp11.not30, label %while.end, label %land.rhs

land.rhs:                                         ; preds = %if.then10, %while.body
  %p.031 = phi ptr [ %incdec.ptr, %while.body ], [ %buffer, %if.then10 ]
  %10 = load i16, ptr %p.031, align 2
  %cmp13.not = icmp eq i16 %10, 0
  br i1 %cmp13.not, label %while.end, label %while.body

while.body:                                       ; preds = %land.rhs
  %incdec.ptr = getelementptr inbounds i8, ptr %p.031, i64 2
  %cmp11.not = icmp eq ptr %incdec.ptr, %add.ptr
  br i1 %cmp11.not, label %while.end, label %land.rhs, !llvm.loop !17

while.end:                                        ; preds = %land.rhs, %while.body, %if.then10
  %p.0.lcssa = phi ptr [ %buffer, %if.then10 ], [ %add.ptr, %while.body ], [ %p.031, %land.rhs ]
  %sub.ptr.lhs.cast = ptrtoint ptr %p.0.lcssa to i64
  %sub.ptr.rhs.cast = ptrtoint ptr %buffer to i64
  %sub.ptr.sub = sub i64 %sub.ptr.lhs.cast, %sub.ptr.rhs.cast
  %sub.ptr.div = lshr exact i64 %sub.ptr.sub, 1
  %conv14 = trunc i64 %sub.ptr.div to i32
  br label %if.end16

if.end16:                                         ; preds = %if.else, %while.end
  %buffLength.addr.0 = phi i32 [ %conv14, %while.end ], [ %buffLength, %if.else ]
  %11 = and i16 %0, 4
  %tobool.not.i18 = icmp eq i16 %11, 0
  br i1 %tobool.not.i18, label %_ZN6icu_7513UnicodeString12releaseArrayEv.exit25, label %land.lhs.true.i19

land.lhs.true.i19:                                ; preds = %if.end16
  %fArray.i.i20 = getelementptr inbounds i8, ptr %this, i64 24
  %12 = load ptr, ptr %fArray.i.i20, align 8
  %add.ptr.i.i21 = getelementptr inbounds i8, ptr %12, i64 -4
  %13 = atomicrmw sub ptr %add.ptr.i.i21, i32 1 seq_cst, align 4
  %cmp.i22 = icmp eq i32 %13, 1
  br i1 %cmp.i22, label %if.then.i23, label %_ZN6icu_7513UnicodeString12releaseArrayEv.exit25

if.then.i23:                                      ; preds = %land.lhs.true.i19
  %14 = load ptr, ptr %fArray.i.i20, align 8
  %add.ptr.i24 = getelementptr inbounds i8, ptr %14, i64 -4
  tail call void @uprv_free_75(ptr noundef nonnull %add.ptr.i24)
  br label %_ZN6icu_7513UnicodeString12releaseArrayEv.exit25

_ZN6icu_7513UnicodeString12releaseArrayEv.exit25: ; preds = %if.end16, %land.lhs.true.i19, %if.then.i23
  %cmp.i.i26 = icmp slt i32 %buffLength.addr.0, 1024
  br i1 %cmp.i.i26, label %if.then.i.i29, label %if.else.i.i

if.then.i.i29:                                    ; preds = %_ZN6icu_7513UnicodeString12releaseArrayEv.exit25
  %len.tr.i.i.i = trunc i32 %buffLength.addr.0 to i16
  %15 = shl i16 %len.tr.i.i.i, 5
  br label %_ZN6icu_7513UnicodeString8setArrayEPDsii.exit

if.else.i.i:                                      ; preds = %_ZN6icu_7513UnicodeString12releaseArrayEv.exit25
  %fLength.i.i = getelementptr inbounds i8, ptr %this, i64 12
  store i32 %buffLength.addr.0, ptr %fLength.i.i, align 4
  br label %_ZN6icu_7513UnicodeString8setArrayEPDsii.exit

_ZN6icu_7513UnicodeString8setArrayEPDsii.exit:    ; preds = %if.then.i.i29, %if.else.i.i
  %or.i.sink.i = phi i16 [ %15, %if.then.i.i29 ], [ -32, %if.else.i.i ]
  store i16 %or.i.sink.i, ptr %fUnion, align 8
  %fArray.i27 = getelementptr inbounds i8, ptr %this, i64 24
  store ptr %buffer, ptr %fArray.i27, align 8
  %fCapacity.i28 = getelementptr inbounds i8, ptr %this, i64 16
  store i32 %buffCapacity, ptr %fCapacity.i28, align 8
  br label %return

return:                                           ; preds = %entry, %_ZN6icu_7513UnicodeString8setArrayEPDsii.exit, %_ZN6icu_7513UnicodeString10setToBogusEv.exit, %_ZN6icu_7513UnicodeString12releaseArrayEv.exit
  ret ptr %this
}